; Function Attrs: null_pointer_is_valid sspstrong uwtable
define float @tvb_get_ntohieee_float(ptr noundef %0, i32 noundef %1) local_unnamed_addr #0 {
  %3 = tail call fastcc ptr @fast_ensure_contiguous(ptr noundef %0, i32 noundef %1, i32 noundef 4)
  %4 = load i8, ptr %3, align 1
  %5 = zext i8 %4 to i32
  %6 = shl nuw i32 %5, 24
  %7 = getelementptr i8, ptr %3, i64 1
  %8 = load i8, ptr %7, align 1
  %9 = zext i8 %8 to i32
  %10 = shl nuw nsw i32 %9, 16
  %11 = or disjoint i32 %10, %6
  %12 = getelementptr i8, ptr %3, i64 2
  %13 = load i8, ptr %12, align 1
  %14 = zext i8 %13 to i32
  %15 = shl nuw nsw i32 %14, 8
  %16 = or disjoint i32 %11, %15
  %17 = getelementptr i8, ptr %3, i64 3
  %18 = load i8, ptr %17, align 1
  %19 = zext i8 %18 to i32
  %20 = or disjoint i32 %16, %19
  %21 = bitcast i32 %20 to float
  ret float %21
}